target datalayout = "e-m:e-p270:32:32-p271:32:32-p272:64:64-i64:64-i128:128-f80:128-n8:16:32:64-S128"
target triple = "x86_64-pc-linux-gnu"

%struct.anon = type { i32, [0 x i8] }
%struct.JsonbValue = type { i32, %union.anon }
%union.anon = type { %struct.anon.2 }
%struct.anon.2 = type { i32, ptr, i8 }
%struct.FunctionCallInfoBaseData = type { ptr, ptr, ptr, i32, i8, i16, [0 x %struct.NullableDatum] }
%struct.NullableDatum = type { i64, i8 }
%struct.Jsonb = type { i32, %struct.JsonbContainer }
%struct.JsonbContainer = type { i32, [0 x i32] }
%struct.ReturnSetInfo = type { i32, ptr, ptr, i32, i32, i32, ptr, ptr }

@.str.2 = private unnamed_addr constant [12 x i8] c"jsonfuncs.c\00", align 1
@CurrentMemoryContext = external global ptr, align 8
@.str.62 = private unnamed_addr constant [38 x i8] c"cannot extract elements from a scalar\00", align 1
@__func__.elements_worker_jsonb = private unnamed_addr constant [22 x i8] c"elements_worker_jsonb\00", align 1
@.str.63 = private unnamed_addr constant [39 x i8] c"cannot extract elements from an object\00", align 1
@.str.64 = private unnamed_addr constant [35 x i8] c"jsonb_array_elements temporary cxt\00", align 1

; Function Attrs: inlinehint nounwind uwtable
define internal ptr @DatumGetPointer(i64 noundef %0) #3 {
  %2 = alloca i64, align 8
  store i64 %0, ptr %2, align 8
  %3 = load i64, ptr %2, align 8
  %4 = inttoptr i64 %3 to ptr
  ret ptr %4
}

; Function Attrs: inlinehint nounwind uwtable
define internal i64 @PointerGetDatum(ptr noundef %0) #3 {
  %2 = alloca ptr, align 8
  store ptr %0, ptr %2, align 8
  %3 = load ptr, ptr %2, align 8
  %4 = ptrtoint ptr %3 to i64
  ret i64 %4
}

; Function Attrs: inlinehint nounwind uwtable
define internal ptr @MemoryContextSwitchTo(ptr noundef %0) #3 {
  %2 = alloca ptr, align 8
  %3 = alloca ptr, align 8
  store ptr %0, ptr %2, align 8
  call void @llvm.lifetime.start.p0(i64 8, ptr %3) #10
  %4 = load ptr, ptr @CurrentMemoryContext, align 8
  store ptr %4, ptr %3, align 8
  %5 = load ptr, ptr %2, align 8
  store ptr %5, ptr @CurrentMemoryContext, align 8
  %6 = load ptr, ptr %3, align 8
  call void @llvm.lifetime.end.p0(i64 8, ptr %3) #10
  ret ptr %6
}

; Function Attrs: inlinehint nounwind uwtable
define internal ptr @DatumGetJsonbP(i64 noundef %0) #3 {
  %2 = alloca i64, align 8
  store i64 %0, ptr %2, align 8
  %3 = load i64, ptr %2, align 8
  %4 = call ptr @DatumGetPointer(i64 noundef %3)
  %5 = call ptr @pg_detoast_datum(ptr noundef %4)
  ret ptr %5
}

; Function Attrs: nounwind uwtable
define internal i64 @elements_worker_jsonb(ptr noundef %0, ptr noundef %1, i1 noundef zeroext %2) #0 {
  %4 = alloca i64, align 8
  %5 = alloca ptr, align 8
  %6 = alloca ptr, align 8
  %7 = alloca i8, align 1
  %8 = alloca ptr, align 8
  %9 = alloca ptr, align 8
  %10 = alloca ptr, align 8
  %11 = alloca ptr, align 8
  %12 = alloca i8, align 1
  %13 = alloca ptr, align 8
  %14 = alloca %struct.JsonbValue, align 8
  %15 = alloca i32, align 4
  %16 = alloca i32, align 4
  %17 = alloca [1 x i64], align 8
  %18 = alloca [1 x i8], align 1
  %19 = alloca ptr, align 8
  %20 = alloca i32, align 4
  store ptr %0, ptr %5, align 8
  store ptr %1, ptr %6, align 8
  %21 = zext i1 %2 to i8
  store i8 %21, ptr %7, align 1
  call void @llvm.lifetime.start.p0(i64 8, ptr %8) #10
  %22 = load ptr, ptr %5, align 8
  %23 = getelementptr inbounds nuw %struct.FunctionCallInfoBaseData, ptr %22, i32 0, i32 6
  %24 = getelementptr inbounds [0 x %struct.NullableDatum], ptr %23, i64 0, i64 0
  %25 = getelementptr inbounds nuw %struct.NullableDatum, ptr %24, i32 0, i32 0
  %26 = load i64, ptr %25, align 8
  %27 = call ptr @DatumGetJsonbP(i64 noundef %26)
  store ptr %27, ptr %8, align 8
  call void @llvm.lifetime.start.p0(i64 8, ptr %9) #10
  call void @llvm.lifetime.start.p0(i64 8, ptr %10) #10
  call void @llvm.lifetime.start.p0(i64 8, ptr %11) #10
  call void @llvm.lifetime.start.p0(i64 1, ptr %12) #10
  store i8 0, ptr %12, align 1
  call void @llvm.lifetime.start.p0(i64 8, ptr %13) #10
  call void @llvm.lifetime.start.p0(i64 32, ptr %14) #10
  call void @llvm.lifetime.start.p0(i64 4, ptr %15) #10
  %28 = load ptr, ptr %8, align 8
  %29 = getelementptr inbounds nuw %struct.anon, ptr %28, i32 0, i32 1
  %30 = getelementptr inbounds [0 x i8], ptr %29, i64 0, i64 0
  %31 = load i32, ptr %30, align 4
  %32 = and i32 %31, 268435456
  %33 = icmp ne i32 %32, 0
  br i1 %33, label %34, label %46

34:                                               ; preds = %3
  br label %35

35:                                               ; preds = %34
  br i1 true, label %36, label %38

36:                                               ; preds = %35
  %37 = call zeroext i1 @errstart_cold(i32 noundef 21, ptr noundef null) #11
  br i1 %37, label %40, label %43

38:                                               ; preds = %35
  %39 = call zeroext i1 @errstart(i32 noundef 21, ptr noundef null)
  br i1 %39, label %40, label %43

40:                                               ; preds = %38, %36
  %41 = call i32 @errcode(i32 noundef 50856066)
  %42 = call i32 (ptr, ...) @errmsg(ptr noundef @.str.62)
  call void @errfinish(ptr noundef @.str.2, i32 noundef 2234, ptr noundef @__func__.elements_worker_jsonb)
  br label %43

43:                                               ; preds = %40, %38, %36
  unreachable

44:                                               ; No predecessors!
  br label %45

45:                                               ; preds = %44
  br label %66

46:                                               ; preds = %3
  %47 = load ptr, ptr %8, align 8
  %48 = getelementptr inbounds nuw %struct.anon, ptr %47, i32 0, i32 1
  %49 = getelementptr inbounds [0 x i8], ptr %48, i64 0, i64 0
  %50 = load i32, ptr %49, align 4
  %51 = and i32 %50, 1073741824
  %52 = icmp ne i32 %51, 0
  br i1 %52, label %65, label %53

53:                                               ; preds = %46
  br label %54

54:                                               ; preds = %53
  br i1 true, label %55, label %57

55:                                               ; preds = %54
  %56 = call zeroext i1 @errstart_cold(i32 noundef 21, ptr noundef null) #11
  br i1 %56, label %59, label %62

57:                                               ; preds = %54
  %58 = call zeroext i1 @errstart(i32 noundef 21, ptr noundef null)
  br i1 %58, label %59, label %62

59:                                               ; preds = %57, %55
  %60 = call i32 @errcode(i32 noundef 50856066)
  %61 = call i32 (ptr, ...) @errmsg(ptr noundef @.str.63)
  call void @errfinish(ptr noundef @.str.2, i32 noundef 2238, ptr noundef @__func__.elements_worker_jsonb)
  br label %62

62:                                               ; preds = %59, %57, %55
  unreachable

63:                                               ; No predecessors!
  br label %64

64:                                               ; preds = %63
  br label %65

65:                                               ; preds = %64, %46
  br label %66

66:                                               ; preds = %65, %45
  %67 = load ptr, ptr %5, align 8
  %68 = getelementptr inbounds nuw %struct.FunctionCallInfoBaseData, ptr %67, i32 0, i32 2
  %69 = load ptr, ptr %68, align 8
  store ptr %69, ptr %9, align 8
  %70 = load ptr, ptr %5, align 8
  call void @InitMaterializedSRF(ptr noundef %70, i32 noundef 3)
  br label %71

71:                                               ; preds = %66
  br label %72

72:                                               ; preds = %71
  br label %73

73:                                               ; preds = %72
  store i32 1, ptr %16, align 4
  %74 = load ptr, ptr @CurrentMemoryContext, align 8
  %75 = call ptr @AllocSetContextCreateInternal(ptr noundef %74, ptr noundef @.str.64, i64 noundef 0, i64 noundef 8192, i64 noundef 8388608)
  store ptr %75, ptr %11, align 8
  %76 = load ptr, ptr %8, align 8
  %77 = getelementptr inbounds nuw %struct.Jsonb, ptr %76, i32 0, i32 1
  %78 = call ptr @JsonbIteratorInit(ptr noundef %77)
  store ptr %78, ptr %13, align 8
  br label %79

79:                                               ; preds = %121, %73
  %80 = load i8, ptr %12, align 1, !range !4, !noundef !5
  %81 = trunc i8 %80 to i1
  %82 = call i32 @JsonbIteratorNext(ptr noundef %13, ptr noundef %14, i1 noundef zeroext %81)
  store i32 %82, ptr %15, align 4
  %83 = icmp ne i32 %82, 0
  br i1 %83, label %84, label %122

84:                                               ; preds = %79
  store i8 1, ptr %12, align 1
  %85 = load i32, ptr %15, align 4
  %86 = icmp eq i32 %85, 3
  br i1 %86, label %87, label %121

87:                                               ; preds = %84
  call void @llvm.lifetime.start.p0(i64 8, ptr %17) #10
  call void @llvm.lifetime.start.p0(i64 1, ptr %18) #10
  call void @llvm.memset.p0.i64(ptr align 1 %18, i8 0, i64 1, i1 false)
  %88 = load ptr, ptr %11, align 8
  %89 = call ptr @MemoryContextSwitchTo(ptr noundef %88)
  store ptr %89, ptr %10, align 8
  %90 = load i8, ptr %7, align 1, !range !4, !noundef !5
  %91 = trunc i8 %90 to i1
  br i1 %91, label %92, label %104

92:                                               ; preds = %87
  %93 = getelementptr inbounds nuw %struct.JsonbValue, ptr %14, i32 0, i32 0
  %94 = load i32, ptr %93, align 8
  %95 = icmp eq i32 %94, 0
  br i1 %95, label %96, label %99

96:                                               ; preds = %92
  %97 = getelementptr inbounds [1 x i8], ptr %18, i64 0, i64 0
  store i8 1, ptr %97, align 1
  %98 = getelementptr inbounds [1 x i64], ptr %17, i64 0, i64 0
  store i64 0, ptr %98, align 8
  br label %103

99:                                               ; preds = %92
  %100 = call ptr @JsonbValueAsText(ptr noundef %14)
  %101 = call i64 @PointerGetDatum(ptr noundef %100)
  %102 = getelementptr inbounds [1 x i64], ptr %17, i64 0, i64 0
  store i64 %101, ptr %102, align 8
  br label %103

103:                                              ; preds = %99, %96
  br label %109

104:                                              ; preds = %87
  call void @llvm.lifetime.start.p0(i64 8, ptr %19) #10
  %105 = call ptr @JsonbValueToJsonb(ptr noundef %14)
  store ptr %105, ptr %19, align 8
  %106 = load ptr, ptr %19, align 8
  %107 = call i64 @PointerGetDatum(ptr noundef %106)
  %108 = getelementptr inbounds [1 x i64], ptr %17, i64 0, i64 0
  store i64 %107, ptr %108, align 8
  call void @llvm.lifetime.end.p0(i64 8, ptr %19) #10
  br label %109

109:                                              ; preds = %104, %103
  %110 = load ptr, ptr %9, align 8
  %111 = getelementptr inbounds nuw %struct.ReturnSetInfo, ptr %110, i32 0, i32 6
  %112 = load ptr, ptr %111, align 8
  %113 = load ptr, ptr %9, align 8
  %114 = getelementptr inbounds nuw %struct.ReturnSetInfo, ptr %113, i32 0, i32 7
  %115 = load ptr, ptr %114, align 8
  %116 = getelementptr inbounds [1 x i64], ptr %17, i64 0, i64 0
  %117 = getelementptr inbounds [1 x i8], ptr %18, i64 0, i64 0
  call void @tuplestore_putvalues(ptr noundef %112, ptr noundef %115, ptr noundef %116, ptr noundef %117)
  %118 = load ptr, ptr %10, align 8
  %119 = call ptr @MemoryContextSwitchTo(ptr noundef %118)
  %120 = load ptr, ptr %11, align 8
  call void @MemoryContextReset(ptr noundef %120)
  call void @llvm.lifetime.end.p0(i64 1, ptr %18) #10
  call void @llvm.lifetime.end.p0(i64 8, ptr %17) #10
  br label %121

121:                                              ; preds = %109, %84
  br label %79, !llvm.loop !12

122:                                              ; preds = %79
  %123 = load ptr, ptr %11, align 8
  call void @MemoryContextDelete(ptr noundef %123)
  br label %124

124:                                              ; preds = %122
  %125 = load ptr, ptr %5, align 8
  %126 = getelementptr inbounds nuw %struct.FunctionCallInfoBaseData, ptr %125, i32 0, i32 4
  store i8 1, ptr %126, align 4
  store i64 0, ptr %4, align 8
  store i32 1, ptr %20, align 4
  br label %129

127:                                              ; No predecessors!
  br label %128

128:                                              ; preds = %127
  store i32 0, ptr %20, align 4
  br label %129

129:                                              ; preds = %128, %124
  call void @llvm.lifetime.end.p0(i64 4, ptr %15) #10
  call void @llvm.lifetime.end.p0(i64 32, ptr %14) #10
  call void @llvm.lifetime.end.p0(i64 8, ptr %13) #10
  call void @llvm.lifetime.end.p0(i64 1, ptr %12) #10
  call void @llvm.lifetime.end.p0(i64 8, ptr %11) #10
  call void @llvm.lifetime.end.p0(i64 8, ptr %10) #10
  call void @llvm.lifetime.end.p0(i64 8, ptr %9) #10
  call void @llvm.lifetime.end.p0(i64 8, ptr %8) #10
  %130 = load i32, ptr %20, align 4
  switch i32 %130, label %133 [
    i32 0, label %131
    i32 1, label %131
  ]

131:                                              ; preds = %129, %129
  %132 = load i64, ptr %4, align 8
  ret i64 %132

133:                                              ; preds = %129
  unreachable
}