; Function Attrs: nounwind uwtable
define internal fastcc void @elements_worker_jsonb(ptr noundef %0, i1 noundef zeroext %1) unnamed_addr #0 {
  %3 = alloca ptr, align 8
  %4 = alloca %struct.JsonbValue, align 8
  %5 = alloca [1 x i64], align 8
  %6 = alloca [1 x i8], align 1
  %7 = getelementptr inbounds nuw i8, ptr %0, i64 32
  %8 = load i64, ptr %7, align 8
  %9 = inttoptr i64 %8 to ptr
  %10 = tail call ptr @pg_detoast_datum(ptr noundef %9) #15
  call void @llvm.lifetime.start.p0(i64 8, ptr nonnull %3) #15
  call void @llvm.lifetime.start.p0(i64 32, ptr nonnull %4) #15
  %11 = getelementptr inbounds nuw i8, ptr %10, i64 4
  %12 = load i32, ptr %11, align 4
  %13 = and i32 %12, 268435456
  %.not = icmp eq i32 %13, 0
  br i1 %.not, label %18, label %14

14:                                               ; preds = %2
  %15 = tail call zeroext i1 @errstart_cold(i32 noundef 21, ptr noundef null) #16
  tail call void @llvm.assume(i1 %15)
  %16 = tail call i32 @errcode(i32 noundef 50856066) #15
  %17 = tail call i32 (ptr, ...) @errmsg(ptr noundef nonnull @.str.62) #15
  tail call void @errfinish(ptr noundef nonnull @.str.2, i32 noundef 2234, ptr noundef nonnull @__func__.elements_worker_jsonb) #15
  unreachable

18:                                               ; preds = %2
  %19 = and i32 %12, 1073741824
  %.not18 = icmp eq i32 %19, 0
  br i1 %.not18, label %20, label %24

20:                                               ; preds = %18
  %21 = tail call zeroext i1 @errstart_cold(i32 noundef 21, ptr noundef null) #16
  tail call void @llvm.assume(i1 %21)
  %22 = tail call i32 @errcode(i32 noundef 50856066) #15
  %23 = tail call i32 (ptr, ...) @errmsg(ptr noundef nonnull @.str.63) #15
  tail call void @errfinish(ptr noundef nonnull @.str.2, i32 noundef 2238, ptr noundef nonnull @__func__.elements_worker_jsonb) #15
  unreachable

24:                                               ; preds = %18
  %25 = getelementptr inbounds nuw i8, ptr %0, i64 16
  %26 = load ptr, ptr %25, align 8
  tail call void @InitMaterializedSRF(ptr noundef nonnull %0, i32 noundef 3) #15
  %27 = load ptr, ptr @CurrentMemoryContext, align 8
  %28 = tail call ptr @AllocSetContextCreateInternal(ptr noundef %27, ptr noundef nonnull @.str.64, i64 noundef 0, i64 noundef 8192, i64 noundef 8388608) #15
  %29 = tail call ptr @JsonbIteratorInit(ptr noundef nonnull %11) #15
  store ptr %29, ptr %3, align 8
  %30 = getelementptr inbounds nuw i8, ptr %26, i64 40
  %31 = getelementptr inbounds nuw i8, ptr %26, i64 48
  br i1 %1, label %.split.us, label %.split

.split.us:                                        ; preds = %24, %.split.us.backedge
  %.0.us = phi i1 [ true, %.split.us.backedge ], [ false, %24 ]
  %32 = call i32 @JsonbIteratorNext(ptr noundef nonnull %3, ptr noundef nonnull %4, i1 noundef zeroext %.0.us) #15
  switch i32 %32, label %.split.us.backedge [
    i32 0, label %.split2.us
    i32 3, label %33
  ]

33:                                               ; preds = %.split.us
  call void @llvm.lifetime.start.p0(i64 8, ptr nonnull %5) #15
  call void @llvm.lifetime.start.p0(i64 1, ptr nonnull %6) #15
  store i8 0, ptr %6, align 1
  %34 = load ptr, ptr @CurrentMemoryContext, align 8
  store ptr %28, ptr @CurrentMemoryContext, align 8
  %35 = load i32, ptr %4, align 8
  %36 = icmp eq i32 %35, 0
  br i1 %36, label %40, label %37

37:                                               ; preds = %33
  %38 = call fastcc ptr @JsonbValueAsText(ptr noundef nonnull %4)
  %39 = ptrtoint ptr %38 to i64
  br label %41

40:                                               ; preds = %33
  store i8 1, ptr %6, align 1
  br label %41

41:                                               ; preds = %40, %37
  %storemerge = phi i64 [ %39, %37 ], [ 0, %40 ]
  store i64 %storemerge, ptr %5, align 8
  %42 = load ptr, ptr %30, align 8
  %43 = load ptr, ptr %31, align 8
  call void @tuplestore_putvalues(ptr noundef %42, ptr noundef %43, ptr noundef nonnull %5, ptr noundef nonnull %6) #15
  store ptr %34, ptr @CurrentMemoryContext, align 8
  call void @MemoryContextReset(ptr noundef %28) #15
  call void @llvm.lifetime.end.p0(i64 1, ptr nonnull %6) #15
  call void @llvm.lifetime.end.p0(i64 8, ptr nonnull %5) #15
  br label %.split.us.backedge

.split.us.backedge:                               ; preds = %41, %.split.us
  br label %.split.us, !llvm.loop !16

.split:                                           ; preds = %24, %.split.backedge
  %.0 = phi i1 [ true, %.split.backedge ], [ false, %24 ]
  %44 = call i32 @JsonbIteratorNext(ptr noundef nonnull %3, ptr noundef nonnull %4, i1 noundef zeroext %.0) #15
  switch i32 %44, label %.split.backedge [
    i32 0, label %.split2.us
    i32 3, label %45
  ]

.split.backedge:                                  ; preds = %.split, %45
  br label %.split, !llvm.loop !16

45:                                               ; preds = %.split
  call void @llvm.lifetime.start.p0(i64 8, ptr nonnull %5) #15
  call void @llvm.lifetime.start.p0(i64 1, ptr nonnull %6) #15
  store i8 0, ptr %6, align 1
  %46 = load ptr, ptr @CurrentMemoryContext, align 8
  store ptr %28, ptr @CurrentMemoryContext, align 8
  %47 = call ptr @JsonbValueToJsonb(ptr noundef nonnull %4) #15
  %48 = ptrtoint ptr %47 to i64
  store i64 %48, ptr %5, align 8
  %49 = load ptr, ptr %30, align 8
  %50 = load ptr, ptr %31, align 8
  call void @tuplestore_putvalues(ptr noundef %49, ptr noundef %50, ptr noundef nonnull %5, ptr noundef nonnull %6) #15
  store ptr %46, ptr @CurrentMemoryContext, align 8
  call void @MemoryContextReset(ptr noundef %28) #15
  call void @llvm.lifetime.end.p0(i64 1, ptr nonnull %6) #15
  call void @llvm.lifetime.end.p0(i64 8, ptr nonnull %5) #15
  br label %.split.backedge

.split2.us:                                       ; preds = %.split, %.split.us
  call void @MemoryContextDelete(ptr noundef %28) #15
  %51 = getelementptr inbounds nuw i8, ptr %0, i64 28
  store i8 1, ptr %51, align 4
  call void @llvm.lifetime.end.p0(i64 32, ptr nonnull %4) #15
  call void @llvm.lifetime.end.p0(i64 8, ptr nonnull %3) #15
  ret void
}